target datalayout = "e-m:e-p270:32:32-p271:32:32-p272:64:64-i64:64-i128:128-f80:128-n8:16:32:64-S128"
target triple = "x86_64-pc-linux-gnu"

%struct.alts_frame_reader = type { ptr, [8 x i8], i64, i64, i64 }

; Function Attrs: mustprogress nounwind uwtable
define noundef zeroext i1 @_Z26alts_has_read_frame_lengthP17alts_frame_reader(ptr noundef %0) #2 {
  %2 = alloca ptr, align 8
  store ptr %0, ptr %2, align 8, !tbaa !26
  %3 = load ptr, ptr %2, align 8, !tbaa !26
  %4 = getelementptr inbounds nuw %struct.alts_frame_reader, ptr %3, i32 0, i32 2
  %5 = load i64, ptr %4, align 8, !tbaa !30
  %6 = icmp eq i64 8, %5
  ret i1 %6
}

; Function Attrs: mustprogress nounwind uwtable
define noundef i64 @_Z31alts_get_reader_bytes_remainingP17alts_frame_reader(ptr noundef %0) #2 {
  %2 = alloca ptr, align 8
  store ptr %0, ptr %2, align 8, !tbaa !26
  %3 = load ptr, ptr %2, align 8, !tbaa !26
  %4 = call noundef zeroext i1 @_Z26alts_has_read_frame_lengthP17alts_frame_reader(ptr noundef %3)
  br i1 %4, label %5, label %9

5:                                                ; preds = %1
  %6 = load ptr, ptr %2, align 8, !tbaa !26
  %7 = getelementptr inbounds nuw %struct.alts_frame_reader, ptr %6, i32 0, i32 4
  %8 = load i64, ptr %7, align 8, !tbaa !31
  br label %10

9:                                                ; preds = %1
  br label %10

10:                                               ; preds = %9, %5
  %11 = phi i64 [ %8, %5 ], [ 0, %9 ]
  ret i64 %11
}